; Function Attrs: mustprogress uwtable
define hidden void @_ZN19OpenColorIO_v2_5dev10OpRcPtrVecC2Ev(ptr noundef nonnull align 8 dereferenceable(144) initializes((0, 24)) %0) unnamed_addr #6 align 2 personality ptr @__gxx_personality_v0 {
  tail call void @llvm.memset.p0.i64(ptr noundef nonnull align 8 dereferenceable(24) %0, i8 0, i64 24, i1 false)
  %2 = getelementptr inbounds nuw i8, ptr %0, i64 24
  invoke void @_ZN19OpenColorIO_v2_5dev18FormatMetadataImplC1Ev(ptr noundef nonnull align 8 dereferenceable(120) %2)
          to label %3 unwind label %4

3:                                                ; preds = %1
  ret void

4:                                                ; preds = %1
  %5 = landingpad { ptr, i32 }
          cleanup
  tail call void @_ZNSt6vectorISt10shared_ptrIN19OpenColorIO_v2_5dev2OpEESaIS3_EED2Ev(ptr noundef nonnull align 8 dereferenceable(24) %0) #26
  resume { ptr, i32 } %5
}